target datalayout = "e-m:e-p270:32:32-p271:32:32-p272:64:64-i64:64-i128:128-f80:128-n8:16:32:64-S128"
target triple = "x86_64-pc-linux-gnu"

%"class.std::__cxx11::basic_string" = type { %"struct.std::__cxx11::basic_string<char>::_Alloc_hider", i64, %union.anon }
%"struct.std::__cxx11::basic_string<char>::_Alloc_hider" = type { ptr }
%union.anon = type { i64, [8 x i8] }
%"struct.std::_Rb_tree_header" = type { %"struct.std::_Rb_tree_node_base", i64 }
%"struct.std::_Rb_tree_node_base" = type { i32, ptr, ptr, ptr }
%class.cmListFileBacktrace = type { %class.cmConstStack }
%class.cmConstStack = type { %"class.std::shared_ptr" }
%"class.std::shared_ptr" = type { %"class.std::__shared_ptr" }
%"class.std::__shared_ptr" = type { ptr, %"class.std::__shared_count" }
%"class.std::__shared_count" = type { ptr }
%class.cmComputeLinkDepends = type { ptr, ptr, ptr, ptr, %"class.std::__cxx11::basic_string", i8, %"class.std::__cxx11::basic_string", i32, i32, %"class.std::vector", %"class.std::map.6", %"class.std::vector", %"class.std::map.11", %"class.std::map.17", %"class.std::queue", %"class.std::queue.26", %"class.std::set", %"class.std::vector.37", %struct.cmGraphAdjacencyList, %"class.std::vector.47", %"class.std::vector.49", %"class.std::map.54", %"class.std::unique_ptr", %"class.std::vector.49", %"class.std::vector.49", %"class.std::vector.49", i64 }
%"class.std::map.6" = type { %"class.std::_Rb_tree.7" }
%"class.std::_Rb_tree.7" = type { %"struct.std::_Rb_tree<std::__cxx11::basic_string<char>, std::pair<const std::__cxx11::basic_string<char>, std::__cxx11::basic_string<char>>, std::_Select1st<std::pair<const std::__cxx11::basic_string<char>, std::__cxx11::basic_string<char>>>, std::less<std::__cxx11::basic_string<char>>>::_Rb_tree_impl" }
%"struct.std::_Rb_tree<std::__cxx11::basic_string<char>, std::pair<const std::__cxx11::basic_string<char>, std::__cxx11::basic_string<char>>, std::_Select1st<std::pair<const std::__cxx11::basic_string<char>, std::__cxx11::basic_string<char>>>, std::less<std::__cxx11::basic_string<char>>>::_Rb_tree_impl" = type { [8 x i8], %"struct.std::_Rb_tree_header" }
%"class.std::vector" = type { %"struct.std::_Vector_base" }
%"struct.std::_Vector_base" = type { %"struct.std::_Vector_base<cmComputeLinkDepends::LinkEntry, std::allocator<cmComputeLinkDepends::LinkEntry>>::_Vector_impl" }
%"struct.std::_Vector_base<cmComputeLinkDepends::LinkEntry, std::allocator<cmComputeLinkDepends::LinkEntry>>::_Vector_impl" = type { %"struct.std::_Vector_base<cmComputeLinkDepends::LinkEntry, std::allocator<cmComputeLinkDepends::LinkEntry>>::_Vector_impl_data" }
%"struct.std::_Vector_base<cmComputeLinkDepends::LinkEntry, std::allocator<cmComputeLinkDepends::LinkEntry>>::_Vector_impl_data" = type { ptr, ptr, ptr }
%"class.std::map.11" = type { %"class.std::_Rb_tree.12" }
%"class.std::_Rb_tree.12" = type { %"struct.std::_Rb_tree<cmLinkItem, std::pair<const cmLinkItem, unsigned long>, std::_Select1st<std::pair<const cmLinkItem, unsigned long>>, std::less<cmLinkItem>>::_Rb_tree_impl" }
%"struct.std::_Rb_tree<cmLinkItem, std::pair<const cmLinkItem, unsigned long>, std::_Select1st<std::pair<const cmLinkItem, unsigned long>>, std::less<cmLinkItem>>::_Rb_tree_impl" = type { [8 x i8], %"struct.std::_Rb_tree_header" }
%"class.std::map.17" = type { %"class.std::_Rb_tree.18" }
%"class.std::_Rb_tree.18" = type { %"struct.std::_Rb_tree<unsigned long, std::pair<const unsigned long, std::vector<unsigned long>>, std::_Select1st<std::pair<const unsigned long, std::vector<unsigned long>>>, std::less<unsigned long>>::_Rb_tree_impl" }
%"struct.std::_Rb_tree<unsigned long, std::pair<const unsigned long, std::vector<unsigned long>>, std::_Select1st<std::pair<const unsigned long, std::vector<unsigned long>>>, std::less<unsigned long>>::_Rb_tree_impl" = type { [8 x i8], %"struct.std::_Rb_tree_header" }
%"class.std::queue" = type { %"class.std::deque" }
%"class.std::deque" = type { %"class.std::_Deque_base" }
%"class.std::_Deque_base" = type { %"struct.std::_Deque_base<cmComputeLinkDepends::BFSEntry, std::allocator<cmComputeLinkDepends::BFSEntry>>::_Deque_impl" }
%"struct.std::_Deque_base<cmComputeLinkDepends::BFSEntry, std::allocator<cmComputeLinkDepends::BFSEntry>>::_Deque_impl" = type { %"struct.std::_Deque_base<cmComputeLinkDepends::BFSEntry, std::allocator<cmComputeLinkDepends::BFSEntry>>::_Deque_impl_data" }
%"struct.std::_Deque_base<cmComputeLinkDepends::BFSEntry, std::allocator<cmComputeLinkDepends::BFSEntry>>::_Deque_impl_data" = type { ptr, i64, %"struct.std::_Deque_iterator", %"struct.std::_Deque_iterator" }
%"struct.std::_Deque_iterator" = type { ptr, ptr, ptr, ptr }
%"class.std::queue.26" = type { %"class.std::deque.27" }
%"class.std::deque.27" = type { %"class.std::_Deque_base.28" }
%"class.std::_Deque_base.28" = type { %"struct.std::_Deque_base<cmComputeLinkDepends::SharedDepEntry, std::allocator<cmComputeLinkDepends::SharedDepEntry>>::_Deque_impl" }
%"struct.std::_Deque_base<cmComputeLinkDepends::SharedDepEntry, std::allocator<cmComputeLinkDepends::SharedDepEntry>>::_Deque_impl" = type { %"struct.std::_Deque_base<cmComputeLinkDepends::SharedDepEntry, std::allocator<cmComputeLinkDepends::SharedDepEntry>>::_Deque_impl_data" }
%"struct.std::_Deque_base<cmComputeLinkDepends::SharedDepEntry, std::allocator<cmComputeLinkDepends::SharedDepEntry>>::_Deque_impl_data" = type { ptr, i64, %"struct.std::_Deque_iterator.32", %"struct.std::_Deque_iterator.32" }
%"struct.std::_Deque_iterator.32" = type { ptr, ptr, ptr, ptr }
%"class.std::set" = type { %"class.std::_Rb_tree.33" }
%"class.std::_Rb_tree.33" = type { %"struct.std::_Rb_tree<unsigned long, unsigned long, std::_Identity<unsigned long>, std::less<unsigned long>>::_Rb_tree_impl" }
%"struct.std::_Rb_tree<unsigned long, unsigned long, std::_Identity<unsigned long>, std::less<unsigned long>>::_Rb_tree_impl" = type { [8 x i8], %"struct.std::_Rb_tree_header" }
%"class.std::vector.37" = type { %"struct.std::_Vector_base.38" }
%"struct.std::_Vector_base.38" = type { %"struct.std::_Vector_base<cmComputeLinkDepends::DependSetList, std::allocator<cmComputeLinkDepends::DependSetList>>::_Vector_impl" }
%"struct.std::_Vector_base<cmComputeLinkDepends::DependSetList, std::allocator<cmComputeLinkDepends::DependSetList>>::_Vector_impl" = type { %"struct.std::_Vector_base<cmComputeLinkDepends::DependSetList, std::allocator<cmComputeLinkDepends::DependSetList>>::_Vector_impl_data" }
%"struct.std::_Vector_base<cmComputeLinkDepends::DependSetList, std::allocator<cmComputeLinkDepends::DependSetList>>::_Vector_impl_data" = type { ptr, ptr, ptr }
%struct.cmGraphAdjacencyList = type { %"class.std::vector.42" }
%"class.std::vector.42" = type { %"struct.std::_Vector_base.43" }
%"struct.std::_Vector_base.43" = type { %"struct.std::_Vector_base<cmGraphEdgeList, std::allocator<cmGraphEdgeList>>::_Vector_impl" }
%"struct.std::_Vector_base<cmGraphEdgeList, std::allocator<cmGraphEdgeList>>::_Vector_impl" = type { %"struct.std::_Vector_base<cmGraphEdgeList, std::allocator<cmGraphEdgeList>>::_Vector_impl_data" }
%"struct.std::_Vector_base<cmGraphEdgeList, std::allocator<cmGraphEdgeList>>::_Vector_impl_data" = type { ptr, ptr, ptr }
%"class.std::vector.47" = type { %"struct.std::_Vector_base.48" }
%"struct.std::_Vector_base.48" = type { %"struct.std::_Vector_base<char, std::allocator<char>>::_Vector_impl" }
%"struct.std::_Vector_base<char, std::allocator<char>>::_Vector_impl" = type { %"struct.std::_Vector_base<char, std::allocator<char>>::_Vector_impl_data" }
%"struct.std::_Vector_base<char, std::allocator<char>>::_Vector_impl_data" = type { ptr, ptr, ptr }
%"class.std::map.54" = type { %"class.std::_Rb_tree.55" }
%"class.std::_Rb_tree.55" = type { %"struct.std::_Rb_tree<unsigned long, std::pair<const unsigned long, cmComputeLinkDepends::PendingComponent>, std::_Select1st<std::pair<const unsigned long, cmComputeLinkDepends::PendingComponent>>, std::less<unsigned long>>::_Rb_tree_impl" }
%"struct.std::_Rb_tree<unsigned long, std::pair<const unsigned long, cmComputeLinkDepends::PendingComponent>, std::_Select1st<std::pair<const unsigned long, cmComputeLinkDepends::PendingComponent>>, std::less<unsigned long>>::_Rb_tree_impl" = type { [8 x i8], %"struct.std::_Rb_tree_header" }
%"class.std::unique_ptr" = type { %"struct.std::__uniq_ptr_data" }
%"struct.std::__uniq_ptr_data" = type { %"class.std::__uniq_ptr_impl" }
%"class.std::__uniq_ptr_impl" = type { %"class.std::tuple" }
%"class.std::tuple" = type { %"struct.std::_Tuple_impl" }
%"struct.std::_Tuple_impl" = type { %"struct.std::_Head_base.60" }
%"struct.std::_Head_base.60" = type { ptr }
%"class.std::vector.49" = type { %"struct.std::_Vector_base.50" }
%"struct.std::_Vector_base.50" = type { %"struct.std::_Vector_base<unsigned long, std::allocator<unsigned long>>::_Vector_impl" }
%"struct.std::_Vector_base<unsigned long, std::allocator<unsigned long>>::_Vector_impl" = type { %"struct.std::_Vector_base<unsigned long, std::allocator<unsigned long>>::_Vector_impl_data" }
%"struct.std::_Vector_base<unsigned long, std::allocator<unsigned long>>::_Vector_impl_data" = type { ptr, ptr, ptr }
%"struct.cmComputeLinkDepends::LinkEntry" = type { %class.BT, ptr, ptr, i32, %"class.std::__cxx11::basic_string" }
%class.BT = type { %"class.std::__cxx11::basic_string", %class.cmListFileBacktrace }
%"class.__gnu_cxx::__normal_iterator.818" = type { ptr }

@stderr = external global ptr, align 8
@.str.27 = private unnamed_addr constant [2 x i8] c"\0A\00", align 1
@.str.40 = private unnamed_addr constant [39 x i8] c"target [%s] link dependency ordering:\0A\00", align 1

; Function Attrs: mustprogress nounwind uwtable
define linkonce_odr dso_local noundef nonnull align 8 dereferenceable(8) ptr @_ZNK9__gnu_cxx17__normal_iteratorIPmSt6vectorImSaImEEE4baseEv(ptr noundef nonnull align 8 dereferenceable(8) %0) #6 comdat align 2 {
  %2 = alloca ptr, align 8
  store ptr %0, ptr %2, align 8, !tbaa !673
  %3 = load ptr, ptr %2, align 8
  %4 = getelementptr inbounds nuw %"class.__gnu_cxx::__normal_iterator.818", ptr %3, i32 0, i32 0
  ret ptr %4
}

; Function Attrs: mustprogress nounwind uwtable
define linkonce_odr dso_local void @_ZN9__gnu_cxx17__normal_iteratorIPmSt6vectorImSaImEEEC2ERKS1_(ptr noundef nonnull align 8 dereferenceable(8) %0, ptr noundef nonnull align 8 dereferenceable(8) %1) unnamed_addr #6 comdat align 2 {
  %3 = alloca ptr, align 8
  %4 = alloca ptr, align 8
  store ptr %0, ptr %3, align 8, !tbaa !673
  store ptr %1, ptr %4, align 8, !tbaa !1150
  %5 = load ptr, ptr %3, align 8
  %6 = getelementptr inbounds nuw %"class.__gnu_cxx::__normal_iterator.818", ptr %5, i32 0, i32 0
  %7 = load ptr, ptr %4, align 8, !tbaa !1150
  %8 = load ptr, ptr %7, align 8, !tbaa !482
  store ptr %8, ptr %6, align 8, !tbaa !675
  ret void
}

; Function Attrs: mustprogress nounwind uwtable
define available_externally noundef ptr @_ZNKSt7__cxx1112basic_stringIcSt11char_traitsIcESaIcEE7_M_dataEv(ptr noundef nonnull align 8 dereferenceable(32) %0) #6 align 2 {
  %2 = alloca ptr, align 8
  store ptr %0, ptr %2, align 8, !tbaa !18
  %3 = load ptr, ptr %2, align 8
  %4 = getelementptr inbounds nuw %"class.std::__cxx11::basic_string", ptr %3, i32 0, i32 0
  %5 = getelementptr inbounds nuw %"struct.std::__cxx11::basic_string<char>::_Alloc_hider", ptr %4, i32 0, i32 0
  %6 = load ptr, ptr %5, align 8, !tbaa !763
  ret ptr %6
}

; Function Attrs: mustprogress nounwind uwtable
define linkonce_odr dso_local noundef nonnull align 8 dereferenceable(8) ptr @_ZN9__gnu_cxx17__normal_iteratorIPmSt6vectorImSaImEEEppEv(ptr noundef nonnull align 8 dereferenceable(8) %0) #6 comdat align 2 {
  %2 = alloca ptr, align 8
  store ptr %0, ptr %2, align 8, !tbaa !673
  %3 = load ptr, ptr %2, align 8
  %4 = getelementptr inbounds nuw %"class.__gnu_cxx::__normal_iterator.818", ptr %3, i32 0, i32 0
  %5 = load ptr, ptr %4, align 8, !tbaa !675
  %6 = getelementptr inbounds nuw i64, ptr %5, i32 1
  store ptr %6, ptr %4, align 8, !tbaa !675
  ret ptr %3
}

; Function Attrs: mustprogress nounwind uwtable
define linkonce_odr dso_local noundef nonnull align 8 dereferenceable(104) ptr @_ZNSt6vectorIN20cmComputeLinkDepends9LinkEntryESaIS1_EEixEm(ptr noundef nonnull align 8 dereferenceable(24) %0, i64 noundef %1) #6 comdat align 2 {
  %3 = alloca ptr, align 8
  %4 = alloca i64, align 8
  store ptr %0, ptr %3, align 8, !tbaa !378
  store i64 %1, ptr %4, align 8, !tbaa !17
  %5 = load ptr, ptr %3, align 8
  %6 = getelementptr inbounds nuw %"struct.std::_Vector_base", ptr %5, i32 0, i32 0
  %7 = getelementptr inbounds nuw %"struct.std::_Vector_base<cmComputeLinkDepends::LinkEntry, std::allocator<cmComputeLinkDepends::LinkEntry>>::_Vector_impl_data", ptr %6, i32 0, i32 0
  %8 = load ptr, ptr %7, align 8, !tbaa !433
  %9 = load i64, ptr %4, align 8, !tbaa !17
  %10 = getelementptr inbounds nuw %"struct.cmComputeLinkDepends::LinkEntry", ptr %8, i64 %9
  ret ptr %10
}

; Function Attrs: mustprogress nounwind uwtable
define linkonce_odr dso_local noundef nonnull align 8 dereferenceable(8) ptr @_ZNK9__gnu_cxx17__normal_iteratorIPmSt6vectorImSaImEEEdeEv(ptr noundef nonnull align 8 dereferenceable(8) %0) #6 comdat align 2 {
  %2 = alloca ptr, align 8
  store ptr %0, ptr %2, align 8, !tbaa !673
  %3 = load ptr, ptr %2, align 8
  %4 = getelementptr inbounds nuw %"class.__gnu_cxx::__normal_iterator.818", ptr %3, i32 0, i32 0
  %5 = load ptr, ptr %4, align 8, !tbaa !675
  ret ptr %5
}

; Function Attrs: inlinehint mustprogress nounwind uwtable
define linkonce_odr dso_local noundef zeroext i1 @_ZN9__gnu_cxxneIPmSt6vectorImSaImEEEEbRKNS_17__normal_iteratorIT_T0_EESA_(ptr noundef nonnull align 8 dereferenceable(8) %0, ptr noundef nonnull align 8 dereferenceable(8) %1) #9 comdat {
  %3 = alloca ptr, align 8
  %4 = alloca ptr, align 8
  store ptr %0, ptr %3, align 8, !tbaa !673
  store ptr %1, ptr %4, align 8, !tbaa !673
  %5 = load ptr, ptr %3, align 8, !tbaa !673
  %6 = call noundef nonnull align 8 dereferenceable(8) ptr @_ZNK9__gnu_cxx17__normal_iteratorIPmSt6vectorImSaImEEE4baseEv(ptr noundef nonnull align 8 dereferenceable(8) %5) #3
  %7 = load ptr, ptr %6, align 8, !tbaa !482
  %8 = load ptr, ptr %4, align 8, !tbaa !673
  %9 = call noundef nonnull align 8 dereferenceable(8) ptr @_ZNK9__gnu_cxx17__normal_iteratorIPmSt6vectorImSaImEEE4baseEv(ptr noundef nonnull align 8 dereferenceable(8) %8) #3
  %10 = load ptr, ptr %9, align 8, !tbaa !482
  %11 = icmp ne ptr %7, %10
  ret i1 %11
}

; Function Attrs: mustprogress nounwind uwtable
define linkonce_odr dso_local ptr @_ZNSt6vectorImSaImEE3endEv(ptr noundef nonnull align 8 dereferenceable(24) %0) #6 comdat align 2 {
  %2 = alloca %"class.__gnu_cxx::__normal_iterator.818", align 8
  %3 = alloca ptr, align 8
  store ptr %0, ptr %3, align 8, !tbaa !398
  %4 = load ptr, ptr %3, align 8
  %5 = getelementptr inbounds nuw %"struct.std::_Vector_base.50", ptr %4, i32 0, i32 0
  %6 = getelementptr inbounds nuw %"struct.std::_Vector_base<unsigned long, std::allocator<unsigned long>>::_Vector_impl_data", ptr %5, i32 0, i32 1
  call void @_ZN9__gnu_cxx17__normal_iteratorIPmSt6vectorImSaImEEEC2ERKS1_(ptr noundef nonnull align 8 dereferenceable(8) %2, ptr noundef nonnull align 8 dereferenceable(8) %6) #3
  %7 = getelementptr inbounds nuw %"class.__gnu_cxx::__normal_iterator.818", ptr %2, i32 0, i32 0
  %8 = load ptr, ptr %7, align 8
  ret ptr %8
}

; Function Attrs: mustprogress nounwind uwtable
define linkonce_odr dso_local ptr @_ZNSt6vectorImSaImEE5beginEv(ptr noundef nonnull align 8 dereferenceable(24) %0) #6 comdat align 2 {
  %2 = alloca %"class.__gnu_cxx::__normal_iterator.818", align 8
  %3 = alloca ptr, align 8
  store ptr %0, ptr %3, align 8, !tbaa !398
  %4 = load ptr, ptr %3, align 8
  %5 = getelementptr inbounds nuw %"struct.std::_Vector_base.50", ptr %4, i32 0, i32 0
  %6 = getelementptr inbounds nuw %"struct.std::_Vector_base<unsigned long, std::allocator<unsigned long>>::_Vector_impl_data", ptr %5, i32 0, i32 0
  call void @_ZN9__gnu_cxx17__normal_iteratorIPmSt6vectorImSaImEEEC2ERKS1_(ptr noundef nonnull align 8 dereferenceable(8) %2, ptr noundef nonnull align 8 dereferenceable(8) %6) #3
  %7 = getelementptr inbounds nuw %"class.__gnu_cxx::__normal_iterator.818", ptr %2, i32 0, i32 0
  %8 = load ptr, ptr %7, align 8
  ret ptr %8
}

; Function Attrs: mustprogress nounwind uwtable
define available_externally noundef ptr @_ZNKSt7__cxx1112basic_stringIcSt11char_traitsIcESaIcEE5c_strEv(ptr noundef nonnull align 8 dereferenceable(32) %0) #6 align 2 {
  %2 = alloca ptr, align 8
  store ptr %0, ptr %2, align 8, !tbaa !18
  %3 = load ptr, ptr %2, align 8
  %4 = call noundef ptr @_ZNKSt7__cxx1112basic_stringIcSt11char_traitsIcESaIcEE7_M_dataEv(ptr noundef nonnull align 8 dereferenceable(32) %3)
  ret ptr %4
}

; Function Attrs: mustprogress uwtable
define dso_local void @_ZN20cmComputeLinkDepends21DisplayOrderedEntriesEv(ptr noundef nonnull align 8 dereferenceable(744) %0) #5 align 2 {
  %2 = alloca ptr, align 8
  %3 = alloca i32, align 4
  %4 = alloca ptr, align 8
  %5 = alloca %"class.__gnu_cxx::__normal_iterator.818", align 8
  %6 = alloca %"class.__gnu_cxx::__normal_iterator.818", align 8
  %7 = alloca i64, align 8
  store ptr %0, ptr %2, align 8, !tbaa !25
  %8 = load ptr, ptr %2, align 8
  %9 = load ptr, ptr @stderr, align 8, !tbaa !439
  %10 = getelementptr inbounds nuw %class.cmComputeLinkDepends, ptr %8, i32 0, i32 0
  %11 = load ptr, ptr %10, align 8, !tbaa !31
  %12 = call noundef nonnull align 8 dereferenceable(32) ptr @_ZNK17cmGeneratorTarget7GetNameB5cxx11Ev(ptr noundef nonnull align 8 dereferenceable(2912) %11)
  %13 = call noundef ptr @_ZNKSt7__cxx1112basic_stringIcSt11char_traitsIcESaIcEE5c_strEv(ptr noundef nonnull align 8 dereferenceable(32) %12) #3
  %14 = call i32 (ptr, ptr, ...) @fprintf(ptr noundef %9, ptr noundef @.str.40, ptr noundef %13) #3
  call void @llvm.lifetime.start.p0(i64 4, ptr %3) #3
  store i32 2, ptr %3, align 4, !tbaa !499
  call void @llvm.lifetime.start.p0(i64 8, ptr %4) #3
  %15 = getelementptr inbounds nuw %class.cmComputeLinkDepends, ptr %8, i32 0, i32 23
  store ptr %15, ptr %4, align 8, !tbaa !398
  call void @llvm.lifetime.start.p0(i64 8, ptr %5) #3
  %16 = load ptr, ptr %4, align 8, !tbaa !398
  %17 = call ptr @_ZNSt6vectorImSaImEE5beginEv(ptr noundef nonnull align 8 dereferenceable(24) %16) #3
  %18 = getelementptr inbounds nuw %"class.__gnu_cxx::__normal_iterator.818", ptr %5, i32 0, i32 0
  store ptr %17, ptr %18, align 8
  call void @llvm.lifetime.start.p0(i64 8, ptr %6) #3
  %19 = load ptr, ptr %4, align 8, !tbaa !398
  %20 = call ptr @_ZNSt6vectorImSaImEE3endEv(ptr noundef nonnull align 8 dereferenceable(24) %19) #3
  %21 = getelementptr inbounds nuw %"class.__gnu_cxx::__normal_iterator.818", ptr %6, i32 0, i32 0
  store ptr %20, ptr %21, align 8
  br label %22

22:                                               ; preds = %31, %1
  %23 = call noundef zeroext i1 @_ZN9__gnu_cxxneIPmSt6vectorImSaImEEEEbRKNS_17__normal_iteratorIT_T0_EESA_(ptr noundef nonnull align 8 dereferenceable(8) %5, ptr noundef nonnull align 8 dereferenceable(8) %6) #3
  br i1 %23, label %25, label %24

24:                                               ; preds = %22
  call void @llvm.lifetime.end.p0(i64 8, ptr %6) #3
  call void @llvm.lifetime.end.p0(i64 8, ptr %5) #3
  call void @llvm.lifetime.end.p0(i64 8, ptr %4) #3
  br label %33

25:                                               ; preds = %22
  call void @llvm.lifetime.start.p0(i64 8, ptr %7) #3
  %26 = call noundef nonnull align 8 dereferenceable(8) ptr @_ZNK9__gnu_cxx17__normal_iteratorIPmSt6vectorImSaImEEEdeEv(ptr noundef nonnull align 8 dereferenceable(8) %5) #3
  %27 = load i64, ptr %26, align 8, !tbaa !17
  store i64 %27, ptr %7, align 8, !tbaa !17
  %28 = getelementptr inbounds nuw %class.cmComputeLinkDepends, ptr %8, i32 0, i32 11
  %29 = load i64, ptr %7, align 8, !tbaa !17
  %30 = call noundef nonnull align 8 dereferenceable(104) ptr @_ZNSt6vectorIN20cmComputeLinkDepends9LinkEntryESaIS1_EEixEm(ptr noundef nonnull align 8 dereferenceable(24) %28, i64 noundef %29) #3
  call void @_ZN12_GLOBAL__N_116DisplayLinkEntryERiRKN20cmComputeLinkDepends9LinkEntryE(ptr noundef nonnull align 4 dereferenceable(4) %3, ptr noundef nonnull align 8 dereferenceable(104) %30)
  call void @llvm.lifetime.end.p0(i64 8, ptr %7) #3
  br label %31

31:                                               ; preds = %25
  %32 = call noundef nonnull align 8 dereferenceable(8) ptr @_ZN9__gnu_cxx17__normal_iteratorIPmSt6vectorImSaImEEEppEv(ptr noundef nonnull align 8 dereferenceable(8) %5) #3
  br label %22

33:                                               ; preds = %24
  %34 = load ptr, ptr @stderr, align 8, !tbaa !439
  %35 = call i32 (ptr, ptr, ...) @fprintf(ptr noundef %34, ptr noundef @.str.27) #3
  call void @llvm.lifetime.end.p0(i64 4, ptr %3) #3
  ret void
}