; Function Attrs: cold mustprogress uwtable
define dso_local void @_ZN20cmComputeLinkDepends21DisplayOrderedEntriesEv(ptr noundef nonnull readonly align 8 captures(none) dereferenceable(744) %0) local_unnamed_addr #9 align 2 {
  %2 = alloca i32, align 4
  %3 = load ptr, ptr @stderr, align 8, !tbaa !424
  %4 = load ptr, ptr %0, align 8, !tbaa !13
  %5 = tail call noundef nonnull align 8 dereferenceable(32) ptr @_ZNK17cmGeneratorTarget7GetNameB5cxx11Ev(ptr noundef nonnull align 8 dereferenceable(2912) %4)
  %6 = load ptr, ptr %5, align 8, !tbaa !340
  %7 = tail call i32 (ptr, ptr, ...) @fprintf(ptr noundef %3, ptr noundef nonnull @.str.40, ptr noundef %6) #34
  call void @llvm.lifetime.start.p0(i64 4, ptr nonnull %2) #30
  store i32 2, ptr %2, align 4, !tbaa !371
  %8 = getelementptr inbounds nuw i8, ptr %0, i64 664
  %9 = load ptr, ptr %8, align 8, !tbaa !601
  %10 = getelementptr inbounds nuw i8, ptr %0, i64 672
  %11 = load ptr, ptr %10, align 8, !tbaa !601
  %.not6 = icmp eq ptr %9, %11
  br i1 %.not6, label %._crit_edge, label %.lr.ph

.lr.ph:                                           ; preds = %1
  %12 = getelementptr inbounds nuw i8, ptr %0, i64 184
  br label %14

._crit_edge:                                      ; preds = %14, %1
  %13 = load ptr, ptr @stderr, align 8, !tbaa !424
  %fputc = tail call i32 @fputc(i32 10, ptr %13)
  call void @llvm.lifetime.end.p0(i64 4, ptr nonnull %2) #30
  ret void

14:                                               ; preds = %.lr.ph, %14
  %.sroa.03.07 = phi ptr [ %9, %.lr.ph ], [ %18, %14 ]
  %15 = load i64, ptr %.sroa.03.07, align 8, !tbaa !342
  %16 = load ptr, ptr %12, align 8, !tbaa !409
  %17 = getelementptr inbounds nuw %"struct.cmComputeLinkDepends::LinkEntry", ptr %16, i64 %15
  call fastcc void @_ZN12_GLOBAL__N_116DisplayLinkEntryERiRKN20cmComputeLinkDepends9LinkEntryE(ptr noundef nonnull align 4 dereferenceable(4) %2, ptr noundef nonnull align 8 dereferenceable(104) %17)
  %18 = getelementptr inbounds nuw i8, ptr %.sroa.03.07, i64 8
  %.not = icmp eq ptr %18, %11
  br i1 %.not, label %._crit_edge, label %14
}